; Function Attrs: mustprogress nounwind uwtable
define noundef nonnull align 8 dereferenceable(8) ptr @_ZN5arrow8internal3UriaSEOS1_(ptr noundef nonnull returned align 8 dereferenceable(8) %this, ptr nocapture noundef nonnull align 8 dereferenceable(8) %u) local_unnamed_addr #7 align 2 personality ptr @__gxx_personality_v0 {
entry:
  %0 = load ptr, ptr %u, align 8
  store ptr null, ptr %u, align 8
  %1 = load ptr, ptr %this, align 8
  store ptr %0, ptr %this, align 8
  %tobool.not.i.i.i.i = icmp eq ptr %1, null
  br i1 %tobool.not.i.i.i.i, label %_ZNSt10unique_ptrIN5arrow8internal3Uri4ImplESt14default_deleteIS3_EEaSEOS6_.exit, label %if.then.i.i.i.i

if.then.i.i.i.i:                                  ; preds = %entry
  tail call void @_ZNKSt14default_deleteIN5arrow8internal3Uri4ImplEEclEPS3_(ptr noundef nonnull align 1 dereferenceable(1) %this, ptr noundef nonnull %1)
  br label %_ZNSt10unique_ptrIN5arrow8internal3Uri4ImplESt14default_deleteIS3_EEaSEOS6_.exit

_ZNSt10unique_ptrIN5arrow8internal3Uri4ImplESt14default_deleteIS3_EEaSEOS6_.exit: ; preds = %entry, %if.then.i.i.i.i
  ret ptr %this
}